; Function Attrs: mustprogress uwtable
define void @_ZNK6icu_756number24LocalizedNumberFormatter10formatImplEPNS0_4impl20UFormattedNumberDataER10UErrorCode(ptr noundef nonnull align 8 dereferenceable(496) %this, ptr noundef %results, ptr noundef nonnull align 4 dereferenceable(4) %status) local_unnamed_addr #1 align 2 personality ptr @__gxx_personality_v0 {
entry:
  %fUnsafeCallCount.i = getelementptr inbounds i8, ptr %this, i64 480
  %0 = load atomic i32, ptr %fUnsafeCallCount.i acquire, align 8
  %cmp.i = icmp sgt i32 %0, -1
  br i1 %cmp.i, label %land.lhs.true.i, label %if.end.i

land.lhs.true.i:                                  ; preds = %entry
  %threshold.i = getelementptr inbounds i8, ptr %this, i64 240
  %1 = load i32, ptr %threshold.i, align 8
  %cmp2.not.i = icmp sle i32 %0, %1
  %cmp6.i = icmp sgt i32 %1, 0
  %or.cond.i = and i1 %cmp2.not.i, %cmp6.i
  br i1 %or.cond.i, label %if.then.i, label %if.end.i

if.then.i:                                        ; preds = %land.lhs.true.i
  %2 = atomicrmw add ptr %fUnsafeCallCount.i, i32 1 seq_cst, align 4
  %add.i.i = add nsw i32 %2, 1
  br label %if.end.i

if.end.i:                                         ; preds = %if.then.i, %land.lhs.true.i, %entry
  %currentCount.0.i = phi i32 [ %add.i.i, %if.then.i ], [ %0, %land.lhs.true.i ], [ %0, %entry ]
  %threshold9.i = getelementptr inbounds i8, ptr %this, i64 240
  %3 = load i32, ptr %threshold9.i, align 8
  %cmp10.i = icmp eq i32 %currentCount.0.i, %3
  %cmp14.i = icmp sgt i32 %3, 0
  %or.cond10.i = and i1 %cmp10.i, %cmp14.i
  br i1 %or.cond10.i, label %if.then15.i, label %_ZNK6icu_756number24LocalizedNumberFormatter15computeCompiledER10UErrorCode.exit

if.then15.i:                                      ; preds = %if.end.i
  %call16.i = tail call noundef ptr @_ZN6icu_757UMemorynwEm(i64 noundef 600) #14
  %new.isnull.i = icmp eq ptr %call16.i, null
  br i1 %new.isnull.i, label %_ZNK6icu_756number24LocalizedNumberFormatter15computeCompiledER10UErrorCode.exit.thread9, label %new.notnull.i

new.notnull.i:                                    ; preds = %if.then15.i
  invoke void @_ZN6icu_756number4impl19NumberFormatterImplC1ERKNS1_10MacroPropsER10UErrorCode(ptr noundef nonnull align 8 dereferenceable(600) %call16.i, ptr noundef nonnull align 8 dereferenceable(472) %this, ptr noundef nonnull align 4 dereferenceable(4) %status)
          to label %_ZNK6icu_756number24LocalizedNumberFormatter15computeCompiledER10UErrorCode.exit.thread unwind label %lpad.i

_ZNK6icu_756number24LocalizedNumberFormatter15computeCompiledER10UErrorCode.exit.thread9: ; preds = %if.then15.i
  store i32 7, ptr %status, align 4
  br label %if.else

lpad.i:                                           ; preds = %new.notnull.i
  %4 = landingpad { ptr, i32 }
          cleanup
  tail call void @_ZN6icu_757UMemorydlEPv(ptr noundef nonnull %call16.i) #14
  resume { ptr, i32 } %4

_ZNK6icu_756number24LocalizedNumberFormatter15computeCompiledER10UErrorCode.exit.thread: ; preds = %new.notnull.i
  %fCompiled.i = getelementptr inbounds i8, ptr %this, i64 472
  store ptr %call16.i, ptr %fCompiled.i, align 8
  store atomic i32 -2147483648, ptr %fUnsafeCallCount.i release, align 8
  br label %if.then

_ZNK6icu_756number24LocalizedNumberFormatter15computeCompiledER10UErrorCode.exit: ; preds = %if.end.i
  %cmp21.i = icmp slt i32 %currentCount.0.i, 0
  br i1 %cmp21.i, label %_ZNK6icu_756number24LocalizedNumberFormatter15computeCompiledER10UErrorCode.exit.if.then_crit_edge, label %if.else

_ZNK6icu_756number24LocalizedNumberFormatter15computeCompiledER10UErrorCode.exit.if.then_crit_edge: ; preds = %_ZNK6icu_756number24LocalizedNumberFormatter15computeCompiledER10UErrorCode.exit
  %fCompiled.phi.trans.insert = getelementptr inbounds i8, ptr %this, i64 472
  %.pre = load ptr, ptr %fCompiled.phi.trans.insert, align 8
  br label %if.then

if.then:                                          ; preds = %_ZNK6icu_756number24LocalizedNumberFormatter15computeCompiledER10UErrorCode.exit.if.then_crit_edge, %_ZNK6icu_756number24LocalizedNumberFormatter15computeCompiledER10UErrorCode.exit.thread
  %5 = phi ptr [ %.pre, %_ZNK6icu_756number24LocalizedNumberFormatter15computeCompiledER10UErrorCode.exit.if.then_crit_edge ], [ %call16.i, %_ZNK6icu_756number24LocalizedNumberFormatter15computeCompiledER10UErrorCode.exit.thread ]
  %call2 = tail call noundef i32 @_ZNK6icu_756number4impl19NumberFormatterImpl6formatEPNS1_20UFormattedNumberDataER10UErrorCode(ptr noundef nonnull align 8 dereferenceable(600) %5, ptr noundef %results, ptr noundef nonnull align 4 dereferenceable(4) %status)
  br label %if.end

if.else:                                          ; preds = %_ZNK6icu_756number24LocalizedNumberFormatter15computeCompiledER10UErrorCode.exit.thread9, %_ZNK6icu_756number24LocalizedNumberFormatter15computeCompiledER10UErrorCode.exit
  %call3 = tail call noundef i32 @_ZN6icu_756number4impl19NumberFormatterImpl12formatStaticERKNS1_10MacroPropsEPNS1_20UFormattedNumberDataER10UErrorCode(ptr noundef nonnull align 8 dereferenceable(472) %this, ptr noundef %results, ptr noundef nonnull align 4 dereferenceable(4) %status)
  br label %if.end

if.end:                                           ; preds = %if.else, %if.then
  %6 = load i32, ptr %status, align 4
  %cmp.i7 = icmp slt i32 %6, 1
  br i1 %cmp.i7, label %if.end6, label %return

if.end6:                                          ; preds = %if.end
  %fString.i = getelementptr inbounds i8, ptr %results, i64 8
  tail call void @_ZN6icu_7522FormattedStringBuilder15writeTerminatorER10UErrorCode(ptr noundef nonnull align 8 dereferenceable(136) %fString.i, ptr noundef nonnull align 4 dereferenceable(4) %status)
  br label %return

return:                                           ; preds = %if.end, %if.end6
  ret void
}